target datalayout = "e-m:e-p270:32:32-p271:32:32-p272:64:64-i64:64-i128:128-f80:128-n8:16:32:64-S128"
target triple = "x86_64-pc-linux-gnu"

%struct.nstime_t = type { i64, i32 }
%struct._proto_node = type { ptr, ptr, ptr, ptr, ptr, ptr, ptr }
%struct.field_info = type { ptr, i32, i32, i32, i32, i32, i32, ptr, ptr, ptr, i32, i32 }

@hf_cflow_timedelta = internal global i32 0, align 4
@hf_cflow_timestart = internal global i32 0, align 4
@hf_cflow_timeend = internal global i32 0, align 4
@ett_flowtime = internal global i32 0, align 4

; Function Attrs: inlinehint nounwind null_pointer_is_valid sspstrong uwtable
define internal void @proto_item_set_generated(ptr noundef %0) #6 {
  %2 = alloca ptr, align 8
  store ptr %0, ptr %2, align 8
  %3 = load ptr, ptr %2, align 8
  %4 = icmp ne ptr %3, null
  br i1 %4, label %5, label %24

5:                                                ; preds = %1
  br label %6

6:                                                ; preds = %5
  %7 = load ptr, ptr %2, align 8
  %8 = getelementptr inbounds nuw %struct._proto_node, ptr %7, i32 0, i32 5
  %9 = load ptr, ptr %8, align 8
  %10 = icmp ne ptr %9, null
  br i1 %10, label %11, label %22

11:                                               ; preds = %6
  %12 = load ptr, ptr %2, align 8
  %13 = getelementptr inbounds nuw %struct._proto_node, ptr %12, i32 0, i32 5
  %14 = load ptr, ptr %13, align 8
  %15 = getelementptr inbounds nuw %struct.field_info, ptr %14, i32 0, i32 6
  %16 = load i32, ptr %15, align 4
  %17 = or i32 %16, 2
  %18 = load ptr, ptr %2, align 8
  %19 = getelementptr inbounds nuw %struct._proto_node, ptr %18, i32 0, i32 5
  %20 = load ptr, ptr %19, align 8
  %21 = getelementptr inbounds nuw %struct.field_info, ptr %20, i32 0, i32 6
  store i32 %17, ptr %21, align 4
  br label %22

22:                                               ; preds = %11, %6
  br label %23

23:                                               ; preds = %22
  br label %24

24:                                               ; preds = %23, %1
  ret void
}

; Function Attrs: null_pointer_is_valid sspstrong uwtable
define internal i32 @flow_process_timeperiod(ptr noundef %0, ptr noundef %1, i32 noundef %2) #0 {
  %4 = alloca ptr, align 8
  %5 = alloca ptr, align 8
  %6 = alloca i32, align 4
  %7 = alloca %struct.nstime_t, align 8
  %8 = alloca %struct.nstime_t, align 8
  %9 = alloca i32, align 4
  %10 = alloca i32, align 4
  %11 = alloca %struct.nstime_t, align 8
  %12 = alloca i32, align 4
  %13 = alloca i32, align 4
  %14 = alloca i32, align 4
  %15 = alloca ptr, align 8
  %16 = alloca ptr, align 8
  store ptr %0, ptr %4, align 8
  store ptr %1, ptr %5, align 8
  store i32 %2, ptr %6, align 4
  call void @llvm.lifetime.start.p0(i64 16, ptr %7) #16
  call void @llvm.lifetime.start.p0(i64 16, ptr %8) #16
  call void @llvm.lifetime.start.p0(i64 4, ptr %9) #16
  call void @llvm.lifetime.start.p0(i64 4, ptr %10) #16
  call void @llvm.lifetime.start.p0(i64 16, ptr %11) #16
  call void @llvm.lifetime.start.p0(i64 4, ptr %12) #16
  call void @llvm.lifetime.start.p0(i64 4, ptr %13) #16
  call void @llvm.lifetime.start.p0(i64 4, ptr %14) #16
  call void @llvm.lifetime.start.p0(i64 8, ptr %15) #16
  call void @llvm.lifetime.start.p0(i64 8, ptr %16) #16
  %17 = load ptr, ptr %5, align 8
  %18 = load i32, ptr %6, align 4
  %19 = call i32 @tvb_get_ntohl(ptr noundef %17, i32 noundef %18)
  store i32 %19, ptr %12, align 4
  %20 = load i32, ptr %12, align 4
  %21 = udiv i32 %20, 1000
  %22 = zext i32 %21 to i64
  %23 = getelementptr inbounds nuw %struct.nstime_t, ptr %7, i32 0, i32 0
  store i64 %22, ptr %23, align 8
  %24 = load i32, ptr %12, align 4
  %25 = urem i32 %24, 1000
  %26 = mul i32 %25, 1000000
  %27 = getelementptr inbounds nuw %struct.nstime_t, ptr %7, i32 0, i32 1
  store i32 %26, ptr %27, align 8
  %28 = load i32, ptr %6, align 4
  store i32 %28, ptr %9, align 4
  %29 = load i32, ptr %6, align 4
  %30 = add i32 %29, 4
  store i32 %30, ptr %6, align 4
  %31 = load ptr, ptr %5, align 8
  %32 = load i32, ptr %6, align 4
  %33 = call i32 @tvb_get_ntohl(ptr noundef %31, i32 noundef %32)
  store i32 %33, ptr %13, align 4
  %34 = load i32, ptr %13, align 4
  %35 = udiv i32 %34, 1000
  %36 = zext i32 %35 to i64
  %37 = getelementptr inbounds nuw %struct.nstime_t, ptr %8, i32 0, i32 0
  store i64 %36, ptr %37, align 8
  %38 = load i32, ptr %13, align 4
  %39 = urem i32 %38, 1000
  %40 = mul i32 %39, 1000000
  %41 = getelementptr inbounds nuw %struct.nstime_t, ptr %8, i32 0, i32 1
  store i32 %40, ptr %41, align 8
  %42 = load i32, ptr %6, align 4
  store i32 %42, ptr %10, align 4
  %43 = load i32, ptr %6, align 4
  %44 = add i32 %43, 4
  store i32 %44, ptr %6, align 4
  %45 = load i32, ptr %13, align 4
  %46 = load i32, ptr %12, align 4
  %47 = sub i32 %45, %46
  store i32 %47, ptr %14, align 4
  %48 = load i32, ptr %14, align 4
  %49 = udiv i32 %48, 1000
  %50 = zext i32 %49 to i64
  %51 = getelementptr inbounds nuw %struct.nstime_t, ptr %11, i32 0, i32 0
  store i64 %50, ptr %51, align 8
  %52 = load i32, ptr %14, align 4
  %53 = urem i32 %52, 1000
  %54 = mul i32 %53, 1000000
  %55 = getelementptr inbounds nuw %struct.nstime_t, ptr %11, i32 0, i32 1
  store i32 %54, ptr %55, align 8
  %56 = load ptr, ptr %4, align 8
  %57 = load i32, ptr @hf_cflow_timedelta, align 4
  %58 = load ptr, ptr %5, align 8
  %59 = load i32, ptr %9, align 4
  %60 = call ptr @proto_tree_add_time(ptr noundef %56, i32 noundef %57, ptr noundef %58, i32 noundef %59, i32 noundef 8, ptr noundef %11)
  store ptr %60, ptr %16, align 8
  %61 = load ptr, ptr %16, align 8
  call void @proto_item_set_generated(ptr noundef %61)
  %62 = load ptr, ptr %16, align 8
  %63 = load i32, ptr @ett_flowtime, align 4
  %64 = call ptr @proto_item_add_subtree(ptr noundef %62, i32 noundef %63)
  store ptr %64, ptr %15, align 8
  %65 = load ptr, ptr %15, align 8
  %66 = load i32, ptr @hf_cflow_timestart, align 4
  %67 = load ptr, ptr %5, align 8
  %68 = load i32, ptr %9, align 4
  %69 = call ptr @proto_tree_add_time(ptr noundef %65, i32 noundef %66, ptr noundef %67, i32 noundef %68, i32 noundef 4, ptr noundef %7)
  %70 = load ptr, ptr %15, align 8
  %71 = load i32, ptr @hf_cflow_timeend, align 4
  %72 = load ptr, ptr %5, align 8
  %73 = load i32, ptr %10, align 4
  %74 = call ptr @proto_tree_add_time(ptr noundef %70, i32 noundef %71, ptr noundef %72, i32 noundef %73, i32 noundef 4, ptr noundef %8)
  %75 = load i32, ptr %6, align 4
  call void @llvm.lifetime.end.p0(i64 8, ptr %16) #16
  call void @llvm.lifetime.end.p0(i64 8, ptr %15) #16
  call void @llvm.lifetime.end.p0(i64 4, ptr %14) #16
  call void @llvm.lifetime.end.p0(i64 4, ptr %13) #16
  call void @llvm.lifetime.end.p0(i64 4, ptr %12) #16
  call void @llvm.lifetime.end.p0(i64 16, ptr %11) #16
  call void @llvm.lifetime.end.p0(i64 4, ptr %10) #16
  call void @llvm.lifetime.end.p0(i64 4, ptr %9) #16
  call void @llvm.lifetime.end.p0(i64 16, ptr %8) #16
  call void @llvm.lifetime.end.p0(i64 16, ptr %7) #16
  ret i32 %75
}