; Function Attrs: null_pointer_is_valid sspstrong uwtable
define internal fastcc noundef i32 @flow_process_timeperiod(ptr noundef %0, ptr noundef %1, i32 noundef %2) unnamed_addr #0 {
  %4 = alloca %struct.nstime_t, align 8
  %5 = alloca %struct.nstime_t, align 8
  %6 = alloca %struct.nstime_t, align 8
  call void @llvm.lifetime.start.p0(i64 16, ptr nonnull %4) #13
  call void @llvm.lifetime.start.p0(i64 16, ptr nonnull %5) #13
  call void @llvm.lifetime.start.p0(i64 16, ptr nonnull %6) #13
  %7 = tail call i32 @tvb_get_ntohl(ptr noundef %1, i32 noundef %2)
  %8 = udiv i32 %7, 1000
  %9 = zext nneg i32 %8 to i64
  store i64 %9, ptr %4, align 8
  %10 = urem i32 %7, 1000
  %11 = mul nuw nsw i32 %10, 1000000
  %12 = getelementptr inbounds nuw i8, ptr %4, i64 8
  store i32 %11, ptr %12, align 8
  %13 = add i32 %2, 4
  %14 = tail call i32 @tvb_get_ntohl(ptr noundef %1, i32 noundef %13)
  %15 = udiv i32 %14, 1000
  %16 = zext nneg i32 %15 to i64
  store i64 %16, ptr %5, align 8
  %17 = urem i32 %14, 1000
  %18 = mul nuw nsw i32 %17, 1000000
  %19 = getelementptr inbounds nuw i8, ptr %5, i64 8
  store i32 %18, ptr %19, align 8
  %20 = sub i32 %14, %7
  %21 = udiv i32 %20, 1000
  %22 = zext nneg i32 %21 to i64
  store i64 %22, ptr %6, align 8
  %23 = urem i32 %20, 1000
  %24 = mul nuw nsw i32 %23, 1000000
  %25 = getelementptr inbounds nuw i8, ptr %6, i64 8
  store i32 %24, ptr %25, align 8
  %26 = load i32, ptr @hf_cflow_timedelta, align 4
  %27 = call ptr @proto_tree_add_time(ptr noundef %0, i32 noundef %26, ptr noundef %1, i32 noundef %2, i32 noundef 8, ptr noundef nonnull %6)
  %.not.i = icmp eq ptr %27, null
  br i1 %.not.i, label %proto_item_set_generated.exit, label %28

28:                                               ; preds = %3
  %29 = getelementptr inbounds nuw i8, ptr %27, i64 40
  %30 = load ptr, ptr %29, align 8
  %.not5.i = icmp eq ptr %30, null
  br i1 %.not5.i, label %proto_item_set_generated.exit, label %31

31:                                               ; preds = %28
  %32 = getelementptr inbounds nuw i8, ptr %30, i64 28
  %33 = load i32, ptr %32, align 4
  %34 = or i32 %33, 2
  store i32 %34, ptr %32, align 4
  br label %proto_item_set_generated.exit

proto_item_set_generated.exit:                    ; preds = %3, %28, %31
  %35 = add i32 %2, 8
  %36 = load i32, ptr @ett_flowtime, align 4
  %37 = call ptr @proto_item_add_subtree(ptr noundef %27, i32 noundef %36)
  %38 = load i32, ptr @hf_cflow_timestart, align 4
  %39 = call ptr @proto_tree_add_time(ptr noundef %37, i32 noundef %38, ptr noundef %1, i32 noundef %2, i32 noundef 4, ptr noundef nonnull %4)
  %40 = load i32, ptr @hf_cflow_timeend, align 4
  %41 = call ptr @proto_tree_add_time(ptr noundef %37, i32 noundef %40, ptr noundef %1, i32 noundef %13, i32 noundef 4, ptr noundef nonnull %5)
  call void @llvm.lifetime.end.p0(i64 16, ptr nonnull %6) #13
  call void @llvm.lifetime.end.p0(i64 16, ptr nonnull %5) #13
  call void @llvm.lifetime.end.p0(i64 16, ptr nonnull %4) #13
  ret i32 %35
}